target datalayout = "e-m:e-p270:32:32-p271:32:32-p272:64:64-i64:64-i128:128-f80:128-n8:16:32:64-S128"
target triple = "x86_64-pc-linux-gnu"

%struct._generic_N_Vector = type { ptr, ptr, ptr }
%struct._N_VectorContent_Serial = type { i64, i32, ptr }

@.str.31 = private unnamed_addr constant [58 x i8] c"--------------------------------------------------------\0A\00", align 1
@.str.33 = private unnamed_addr constant [59 x i8] c"--------------------------------------------------------\0A\0A\00", align 1
@.str.56 = private unnamed_addr constant [20 x i8] c"returned t: %12.4e\0A\00", align 1
@.str.57 = private unnamed_addr constant [20 x i8] c"tout:       %12.4e\0A\00", align 1
@.str.58 = private unnamed_addr constant [34 x i8] c"lambda(t):  %12.4e %12.4e %12.4e\0A\00", align 1
@.str.59 = private unnamed_addr constant [34 x i8] c"y(t):       %12.4e %12.4e %12.4e\0A\00", align 1

; Function Attrs: nounwind uwtable
define internal void @PrintOutput1(double noundef %0, double noundef %1, ptr noundef %2, ptr noundef %3) #0 {
  %5 = alloca double, align 8
  %6 = alloca double, align 8
  %7 = alloca ptr, align 8
  %8 = alloca ptr, align 8
  store double %0, ptr %5, align 8, !tbaa !18
  store double %1, ptr %6, align 8, !tbaa !18
  store ptr %2, ptr %7, align 8, !tbaa !16
  store ptr %3, ptr %8, align 8, !tbaa !16
  %9 = call i32 (ptr, ...) @printf(ptr noundef @.str.31)
  %10 = load double, ptr %5, align 8, !tbaa !18
  %11 = call i32 (ptr, ...) @printf(ptr noundef @.str.56, double noundef %10)
  %12 = load double, ptr %6, align 8, !tbaa !18
  %13 = call i32 (ptr, ...) @printf(ptr noundef @.str.57, double noundef %12)
  %14 = load ptr, ptr %8, align 8, !tbaa !16
  %15 = getelementptr inbounds nuw %struct._generic_N_Vector, ptr %14, i32 0, i32 0
  %16 = load ptr, ptr %15, align 8, !tbaa !22
  %17 = getelementptr inbounds nuw %struct._N_VectorContent_Serial, ptr %16, i32 0, i32 2
  %18 = load ptr, ptr %17, align 8, !tbaa !25
  %19 = getelementptr inbounds double, ptr %18, i64 0
  %20 = load double, ptr %19, align 8, !tbaa !18
  %21 = load ptr, ptr %8, align 8, !tbaa !16
  %22 = getelementptr inbounds nuw %struct._generic_N_Vector, ptr %21, i32 0, i32 0
  %23 = load ptr, ptr %22, align 8, !tbaa !22
  %24 = getelementptr inbounds nuw %struct._N_VectorContent_Serial, ptr %23, i32 0, i32 2
  %25 = load ptr, ptr %24, align 8, !tbaa !25
  %26 = getelementptr inbounds double, ptr %25, i64 1
  %27 = load double, ptr %26, align 8, !tbaa !18
  %28 = load ptr, ptr %8, align 8, !tbaa !16
  %29 = getelementptr inbounds nuw %struct._generic_N_Vector, ptr %28, i32 0, i32 0
  %30 = load ptr, ptr %29, align 8, !tbaa !22
  %31 = getelementptr inbounds nuw %struct._N_VectorContent_Serial, ptr %30, i32 0, i32 2
  %32 = load ptr, ptr %31, align 8, !tbaa !25
  %33 = getelementptr inbounds double, ptr %32, i64 2
  %34 = load double, ptr %33, align 8, !tbaa !18
  %35 = call i32 (ptr, ...) @printf(ptr noundef @.str.58, double noundef %20, double noundef %27, double noundef %34)
  %36 = load ptr, ptr %7, align 8, !tbaa !16
  %37 = getelementptr inbounds nuw %struct._generic_N_Vector, ptr %36, i32 0, i32 0
  %38 = load ptr, ptr %37, align 8, !tbaa !22
  %39 = getelementptr inbounds nuw %struct._N_VectorContent_Serial, ptr %38, i32 0, i32 2
  %40 = load ptr, ptr %39, align 8, !tbaa !25
  %41 = getelementptr inbounds double, ptr %40, i64 0
  %42 = load double, ptr %41, align 8, !tbaa !18
  %43 = load ptr, ptr %7, align 8, !tbaa !16
  %44 = getelementptr inbounds nuw %struct._generic_N_Vector, ptr %43, i32 0, i32 0
  %45 = load ptr, ptr %44, align 8, !tbaa !22
  %46 = getelementptr inbounds nuw %struct._N_VectorContent_Serial, ptr %45, i32 0, i32 2
  %47 = load ptr, ptr %46, align 8, !tbaa !25
  %48 = getelementptr inbounds double, ptr %47, i64 1
  %49 = load double, ptr %48, align 8, !tbaa !18
  %50 = load ptr, ptr %7, align 8, !tbaa !16
  %51 = getelementptr inbounds nuw %struct._generic_N_Vector, ptr %50, i32 0, i32 0
  %52 = load ptr, ptr %51, align 8, !tbaa !22
  %53 = getelementptr inbounds nuw %struct._N_VectorContent_Serial, ptr %52, i32 0, i32 2
  %54 = load ptr, ptr %53, align 8, !tbaa !25
  %55 = getelementptr inbounds double, ptr %54, i64 2
  %56 = load double, ptr %55, align 8, !tbaa !18
  %57 = call i32 (ptr, ...) @printf(ptr noundef @.str.59, double noundef %42, double noundef %49, double noundef %56)
  %58 = call i32 (ptr, ...) @printf(ptr noundef @.str.33)
  ret void
}